target datalayout = "e-m:e-p270:32:32-p271:32:32-p272:64:64-i64:64-i128:128-f80:128-n8:16:32:64-S128"
target triple = "x86_64-pc-linux-gnu"

%struct.AVRational = type { i32, i32 }
%struct.AVFrameSideData = type { i32, ptr, i64, ptr, ptr }
%struct.AVContentLightMetadata = type { i32, i32 }
%struct.AVMasteringDisplayMetadata = type { [3 x [2 x %struct.AVRational]], [2 x %struct.AVRational], %struct.AVRational, %struct.AVRational, i32, i32 }

; Function Attrs: nounwind uwtable
define void @ff_update_hdr_metadata(ptr noundef %0, double noundef %1) #0 {
  %3 = alloca ptr, align 8
  %4 = alloca double, align 8
  %5 = alloca ptr, align 8
  %6 = alloca ptr, align 8
  %7 = alloca ptr, align 8
  %8 = alloca %struct.AVRational, align 4
  store ptr %0, ptr %3, align 8, !tbaa !28
  store double %1, ptr %4, align 8, !tbaa !9
  call void @llvm.lifetime.start.p0(i64 8, ptr %5) #7
  %9 = load ptr, ptr %3, align 8, !tbaa !28
  %10 = call ptr @av_frame_get_side_data(ptr noundef %9, i32 noundef 14)
  store ptr %10, ptr %5, align 8, !tbaa !30
  %11 = load ptr, ptr %5, align 8, !tbaa !30
  %12 = icmp ne ptr %11, null
  br i1 %12, label %13, label %22

13:                                               ; preds = %2
  call void @llvm.lifetime.start.p0(i64 8, ptr %6) #7
  %14 = load ptr, ptr %5, align 8, !tbaa !30
  %15 = getelementptr inbounds nuw %struct.AVFrameSideData, ptr %14, i32 0, i32 1
  %16 = load ptr, ptr %15, align 8, !tbaa !32
  store ptr %16, ptr %6, align 8, !tbaa !38
  %17 = load double, ptr %4, align 8, !tbaa !9
  %18 = fmul nsz double %17, 1.000000e+02
  %19 = fptoui double %18 to i32
  %20 = load ptr, ptr %6, align 8, !tbaa !38
  %21 = getelementptr inbounds nuw %struct.AVContentLightMetadata, ptr %20, i32 0, i32 0
  store i32 %19, ptr %21, align 4, !tbaa !40
  call void @llvm.lifetime.end.p0(i64 8, ptr %6) #7
  br label %22

22:                                               ; preds = %13, %2
  %23 = load ptr, ptr %3, align 8, !tbaa !28
  %24 = call ptr @av_frame_get_side_data(ptr noundef %23, i32 noundef 11)
  store ptr %24, ptr %5, align 8, !tbaa !30
  %25 = load ptr, ptr %5, align 8, !tbaa !30
  %26 = icmp ne ptr %25, null
  br i1 %26, label %27, label %42

27:                                               ; preds = %22
  call void @llvm.lifetime.start.p0(i64 8, ptr %7) #7
  %28 = load ptr, ptr %5, align 8, !tbaa !30
  %29 = getelementptr inbounds nuw %struct.AVFrameSideData, ptr %28, i32 0, i32 1
  %30 = load ptr, ptr %29, align 8, !tbaa !32
  store ptr %30, ptr %7, align 8, !tbaa !42
  %31 = load ptr, ptr %7, align 8, !tbaa !42
  %32 = getelementptr inbounds nuw %struct.AVMasteringDisplayMetadata, ptr %31, i32 0, i32 5
  %33 = load i32, ptr %32, align 4, !tbaa !44
  %34 = icmp ne i32 %33, 0
  br i1 %34, label %35, label %41

35:                                               ; preds = %27
  %36 = load ptr, ptr %7, align 8, !tbaa !42
  %37 = getelementptr inbounds nuw %struct.AVMasteringDisplayMetadata, ptr %36, i32 0, i32 3
  call void @llvm.lifetime.start.p0(i64 8, ptr %8) #7
  %38 = load double, ptr %4, align 8, !tbaa !9
  %39 = fmul nsz double %38, 1.000000e+02
  %40 = call i64 @av_d2q(double noundef %39, i32 noundef 10000) #8
  store i64 %40, ptr %8, align 4
  call void @llvm.memcpy.p0.p0.i64(ptr align 4 %37, ptr align 4 %8, i64 8, i1 false), !tbaa.struct !53
  call void @llvm.lifetime.end.p0(i64 8, ptr %8) #7
  br label %41

41:                                               ; preds = %35, %27
  call void @llvm.lifetime.end.p0(i64 8, ptr %7) #7
  br label %42

42:                                               ; preds = %41, %22
  call void @llvm.lifetime.end.p0(i64 8, ptr %5) #7
  ret void
}