; Function Attrs: nounwind uwtable
define void @ff_update_hdr_metadata(ptr noundef %0, double noundef %1) local_unnamed_addr #5 {
  %3 = tail call ptr @av_frame_get_side_data(ptr noundef %0, i32 noundef 14) #8
  %.not = icmp eq ptr %3, null
  br i1 %.not, label %9, label %4

4:                                                ; preds = %2
  %5 = getelementptr inbounds nuw i8, ptr %3, i64 8
  %6 = load ptr, ptr %5, align 8, !tbaa !14
  %7 = fmul nsz double %1, 1.000000e+02
  %8 = fptoui double %7 to i32
  store i32 %8, ptr %6, align 4, !tbaa !22
  br label %9

9:                                                ; preds = %4, %2
  %10 = tail call ptr @av_frame_get_side_data(ptr noundef %0, i32 noundef 11) #8
  %.not12 = icmp eq ptr %10, null
  br i1 %.not12, label %20, label %11

11:                                               ; preds = %9
  %12 = getelementptr inbounds nuw i8, ptr %10, i64 8
  %13 = load ptr, ptr %12, align 8, !tbaa !14
  %14 = getelementptr inbounds nuw i8, ptr %13, i64 84
  %15 = load i32, ptr %14, align 4, !tbaa !24
  %.not13 = icmp eq i32 %15, 0
  br i1 %.not13, label %20, label %16

16:                                               ; preds = %11
  %17 = getelementptr inbounds nuw i8, ptr %13, i64 72
  %18 = fmul nsz double %1, 1.000000e+02
  %19 = tail call i64 @av_d2q(double noundef %18, i32 noundef 10000) #9
  store i64 %19, ptr %17, align 4
  br label %20

20:                                               ; preds = %11, %16, %9
  ret void
}